target datalayout = "e-m:e-p270:32:32-p271:32:32-p272:64:64-i64:64-i128:128-f80:128-n8:16:32:64-S128"
target triple = "x86_64-pc-linux-gnu"

; Function Attrs: nounwind uwtable
define internal i64 @sf_parse_key(ptr noundef %0, ptr noundef %1) #0 {
  %3 = alloca i64, align 8
  %4 = alloca ptr, align 8
  %5 = alloca ptr, align 8
  %6 = alloca ptr, align 8
  %7 = alloca i32, align 4
  store ptr %0, ptr %4, align 8, !tbaa !57
  store ptr %1, ptr %5, align 8, !tbaa !57
  call void @llvm.lifetime.start.p0(i64 8, ptr %6) #6
  %8 = load ptr, ptr %4, align 8, !tbaa !57
  store ptr %8, ptr %6, align 8, !tbaa !57
  %9 = load ptr, ptr %6, align 8, !tbaa !57
  %10 = load i8, ptr %9, align 1, !tbaa !22
  %11 = zext i8 %10 to i32
  %12 = icmp slt i32 %11, 97
  br i1 %12, label %18, label %13

13:                                               ; preds = %2
  %14 = load ptr, ptr %6, align 8, !tbaa !57
  %15 = load i8, ptr %14, align 1, !tbaa !22
  %16 = zext i8 %15 to i32
  %17 = icmp slt i32 122, %16
  br i1 %17, label %18, label %24

18:                                               ; preds = %13, %2
  %19 = load ptr, ptr %6, align 8, !tbaa !57
  %20 = load i8, ptr %19, align 1, !tbaa !22
  %21 = zext i8 %20 to i32
  %22 = icmp ne i32 %21, 42
  br i1 %22, label %23, label %24

23:                                               ; preds = %18
  store i64 -1, ptr %3, align 8
  store i32 1, ptr %7, align 4
  br label %48

24:                                               ; preds = %18, %13
  br label %25

25:                                               ; preds = %39, %24
  %26 = load ptr, ptr %6, align 8, !tbaa !57
  %27 = load ptr, ptr %5, align 8, !tbaa !57
  %28 = icmp ne ptr %26, %27
  br i1 %28, label %29, label %36

29:                                               ; preds = %25
  %30 = load ptr, ptr %6, align 8, !tbaa !57
  %31 = load i8, ptr %30, align 1, !tbaa !22
  %32 = zext i8 %31 to i64
  %33 = getelementptr inbounds nuw [256 x i32], ptr @SF_KEY_CHARS, i64 0, i64 %32
  %34 = load i32, ptr %33, align 4, !tbaa !12
  %35 = icmp ne i32 %34, 0
  br label %36

36:                                               ; preds = %29, %25
  %37 = phi i1 [ false, %25 ], [ %35, %29 ]
  br i1 %37, label %38, label %42

38:                                               ; preds = %36
  br label %39

39:                                               ; preds = %38
  %40 = load ptr, ptr %6, align 8, !tbaa !57
  %41 = getelementptr inbounds nuw i8, ptr %40, i32 1
  store ptr %41, ptr %6, align 8, !tbaa !57
  br label %25, !llvm.loop !83

42:                                               ; preds = %36
  %43 = load ptr, ptr %6, align 8, !tbaa !57
  %44 = load ptr, ptr %4, align 8, !tbaa !57
  %45 = ptrtoint ptr %43 to i64
  %46 = ptrtoint ptr %44 to i64
  %47 = sub i64 %45, %46
  store i64 %47, ptr %3, align 8
  store i32 1, ptr %7, align 4
  br label %48

48:                                               ; preds = %42, %23
  call void @llvm.lifetime.end.p0(i64 8, ptr %6) #6
  %49 = load i64, ptr %3, align 8
  ret i64 %49
}

; Function Attrs: nounwind uwtable
define internal i64 @sf_parse_params(ptr noundef %0, ptr noundef %1) #0 {
  %3 = alloca i64, align 8
  %4 = alloca ptr, align 8
  %5 = alloca ptr, align 8
  %6 = alloca ptr, align 8
  %7 = alloca i64, align 8
  %8 = alloca i32, align 4
  store ptr %0, ptr %4, align 8, !tbaa !57
  store ptr %1, ptr %5, align 8, !tbaa !57
  call void @llvm.lifetime.start.p0(i64 8, ptr %6) #6
  %9 = load ptr, ptr %4, align 8, !tbaa !57
  store ptr %9, ptr %6, align 8, !tbaa !57
  call void @llvm.lifetime.start.p0(i64 8, ptr %7) #6
  br label %10

10:                                               ; preds = %77, %2
  %11 = load ptr, ptr %6, align 8, !tbaa !57
  %12 = load ptr, ptr %5, align 8, !tbaa !57
  %13 = icmp ne ptr %11, %12
  br i1 %13, label %14, label %19

14:                                               ; preds = %10
  %15 = load ptr, ptr %6, align 8, !tbaa !57
  %16 = load i8, ptr %15, align 1, !tbaa !22
  %17 = zext i8 %16 to i32
  %18 = icmp eq i32 %17, 59
  br label %19

19:                                               ; preds = %14, %10
  %20 = phi i1 [ false, %10 ], [ %18, %14 ]
  br i1 %20, label %21, label %78

21:                                               ; preds = %19
  %22 = load ptr, ptr %6, align 8, !tbaa !57
  %23 = getelementptr inbounds nuw i8, ptr %22, i32 1
  store ptr %23, ptr %6, align 8, !tbaa !57
  br label %24

24:                                               ; preds = %36, %21
  %25 = load ptr, ptr %6, align 8, !tbaa !57
  %26 = load ptr, ptr %5, align 8, !tbaa !57
  %27 = icmp eq ptr %25, %26
  br i1 %27, label %28, label %29

28:                                               ; preds = %24
  store i64 -1, ptr %3, align 8
  store i32 1, ptr %8, align 4
  br label %84

29:                                               ; preds = %24
  %30 = load ptr, ptr %6, align 8, !tbaa !57
  %31 = load i8, ptr %30, align 1, !tbaa !22
  %32 = zext i8 %31 to i32
  %33 = icmp ne i32 %32, 32
  br i1 %33, label %34, label %35

34:                                               ; preds = %29
  br label %39

35:                                               ; preds = %29
  br label %36

36:                                               ; preds = %35
  %37 = load ptr, ptr %6, align 8, !tbaa !57
  %38 = getelementptr inbounds nuw i8, ptr %37, i32 1
  store ptr %38, ptr %6, align 8, !tbaa !57
  br label %24

39:                                               ; preds = %34
  %40 = load ptr, ptr %6, align 8, !tbaa !57
  %41 = load ptr, ptr %5, align 8, !tbaa !57
  %42 = call i64 @sf_parse_key(ptr noundef %40, ptr noundef %41)
  store i64 %42, ptr %7, align 8, !tbaa !23
  %43 = load i64, ptr %7, align 8, !tbaa !23
  %44 = icmp slt i64 %43, 0
  br i1 %44, label %45, label %46

45:                                               ; preds = %39
  store i64 -1, ptr %3, align 8
  store i32 1, ptr %8, align 4
  br label %84

46:                                               ; preds = %39
  %47 = load i64, ptr %7, align 8, !tbaa !23
  %48 = load ptr, ptr %6, align 8, !tbaa !57
  %49 = getelementptr inbounds i8, ptr %48, i64 %47
  store ptr %49, ptr %6, align 8, !tbaa !57
  %50 = load ptr, ptr %6, align 8, !tbaa !57
  %51 = load ptr, ptr %5, align 8, !tbaa !57
  %52 = icmp eq ptr %50, %51
  br i1 %52, label %58, label %53

53:                                               ; preds = %46
  %54 = load ptr, ptr %6, align 8, !tbaa !57
  %55 = load i8, ptr %54, align 1, !tbaa !22
  %56 = zext i8 %55 to i32
  %57 = icmp ne i32 %56, 61
  br i1 %57, label %58, label %59

58:                                               ; preds = %53, %46
  br label %77

59:                                               ; preds = %53
  %60 = load ptr, ptr %6, align 8, !tbaa !57
  %61 = getelementptr inbounds nuw i8, ptr %60, i32 1
  store ptr %61, ptr %6, align 8, !tbaa !57
  %62 = load ptr, ptr %5, align 8, !tbaa !57
  %63 = icmp eq ptr %61, %62
  br i1 %63, label %64, label %65

64:                                               ; preds = %59
  store i64 -1, ptr %3, align 8
  store i32 1, ptr %8, align 4
  br label %84

65:                                               ; preds = %59
  %66 = load ptr, ptr %6, align 8, !tbaa !57
  %67 = load ptr, ptr %5, align 8, !tbaa !57
  %68 = call i64 @sf_parse_bare_item(ptr noundef null, ptr noundef %66, ptr noundef %67)
  store i64 %68, ptr %7, align 8, !tbaa !23
  %69 = load i64, ptr %7, align 8, !tbaa !23
  %70 = icmp slt i64 %69, 0
  br i1 %70, label %71, label %72

71:                                               ; preds = %65
  store i64 -1, ptr %3, align 8
  store i32 1, ptr %8, align 4
  br label %84

72:                                               ; preds = %65
  %73 = load i64, ptr %7, align 8, !tbaa !23
  %74 = load ptr, ptr %6, align 8, !tbaa !57
  %75 = getelementptr inbounds i8, ptr %74, i64 %73
  store ptr %75, ptr %6, align 8, !tbaa !57
  br label %76

76:                                               ; preds = %72
  br label %77

77:                                               ; preds = %76, %58
  br label %10, !llvm.loop !84

78:                                               ; preds = %19
  %79 = load ptr, ptr %6, align 8, !tbaa !57
  %80 = load ptr, ptr %4, align 8, !tbaa !57
  %81 = ptrtoint ptr %79 to i64
  %82 = ptrtoint ptr %80 to i64
  %83 = sub i64 %81, %82
  store i64 %83, ptr %3, align 8
  store i32 1, ptr %8, align 4
  br label %84

84:                                               ; preds = %78, %71, %64, %45, %28
  call void @llvm.lifetime.end.p0(i64 8, ptr %7) #6
  call void @llvm.lifetime.end.p0(i64 8, ptr %6) #6
  %85 = load i64, ptr %3, align 8
  ret i64 %85
}

; Function Attrs: nounwind uwtable
define internal i64 @sf_parse_item(ptr noundef %0, ptr noundef %1, ptr noundef %2) #0 {
  %4 = alloca i64, align 8
  %5 = alloca ptr, align 8
  %6 = alloca ptr, align 8
  %7 = alloca ptr, align 8
  %8 = alloca ptr, align 8
  %9 = alloca i64, align 8
  %10 = alloca i32, align 4
  store ptr %0, ptr %5, align 8, !tbaa !71
  store ptr %1, ptr %6, align 8, !tbaa !57
  store ptr %2, ptr %7, align 8, !tbaa !57
  call void @llvm.lifetime.start.p0(i64 8, ptr %8) #6
  %11 = load ptr, ptr %6, align 8, !tbaa !57
  store ptr %11, ptr %8, align 8, !tbaa !57
  call void @llvm.lifetime.start.p0(i64 8, ptr %9) #6
  %12 = load ptr, ptr %5, align 8, !tbaa !71
  %13 = load ptr, ptr %8, align 8, !tbaa !57
  %14 = load ptr, ptr %7, align 8, !tbaa !57
  %15 = call i64 @sf_parse_bare_item(ptr noundef %12, ptr noundef %13, ptr noundef %14)
  store i64 %15, ptr %9, align 8, !tbaa !23
  %16 = load i64, ptr %9, align 8, !tbaa !23
  %17 = icmp slt i64 %16, 0
  br i1 %17, label %18, label %19

18:                                               ; preds = %3
  store i64 -1, ptr %4, align 8
  store i32 1, ptr %10, align 4
  br label %38

19:                                               ; preds = %3
  %20 = load i64, ptr %9, align 8, !tbaa !23
  %21 = load ptr, ptr %8, align 8, !tbaa !57
  %22 = getelementptr inbounds i8, ptr %21, i64 %20
  store ptr %22, ptr %8, align 8, !tbaa !57
  %23 = load ptr, ptr %8, align 8, !tbaa !57
  %24 = load ptr, ptr %7, align 8, !tbaa !57
  %25 = call i64 @sf_parse_params(ptr noundef %23, ptr noundef %24)
  store i64 %25, ptr %9, align 8, !tbaa !23
  %26 = load i64, ptr %9, align 8, !tbaa !23
  %27 = icmp slt i64 %26, 0
  br i1 %27, label %28, label %29

28:                                               ; preds = %19
  store i64 -1, ptr %4, align 8
  store i32 1, ptr %10, align 4
  br label %38

29:                                               ; preds = %19
  %30 = load i64, ptr %9, align 8, !tbaa !23
  %31 = load ptr, ptr %8, align 8, !tbaa !57
  %32 = getelementptr inbounds i8, ptr %31, i64 %30
  store ptr %32, ptr %8, align 8, !tbaa !57
  %33 = load ptr, ptr %8, align 8, !tbaa !57
  %34 = load ptr, ptr %6, align 8, !tbaa !57
  %35 = ptrtoint ptr %33 to i64
  %36 = ptrtoint ptr %34 to i64
  %37 = sub i64 %35, %36
  store i64 %37, ptr %4, align 8
  store i32 1, ptr %10, align 4
  br label %38

38:                                               ; preds = %29, %28, %18
  call void @llvm.lifetime.end.p0(i64 8, ptr %9) #6
  call void @llvm.lifetime.end.p0(i64 8, ptr %8) #6
  %39 = load i64, ptr %4, align 8
  ret i64 %39
}