; Function Attrs: nofree norecurse nosync nounwind memory(readwrite, inaccessiblemem: none) uwtable
define internal fastcc noundef i64 @sf_parse_item(ptr noundef %0, ptr noundef %1, ptr noundef %2) unnamed_addr #6 {
  %4 = tail call fastcc i64 @sf_parse_bare_item(ptr noundef %0, ptr noundef %1, ptr noundef %2)
  %5 = icmp slt i64 %4, 0
  br i1 %5, label %sf_parse_params.exit.thread, label %6

6:                                                ; preds = %3
  %7 = getelementptr inbounds nuw i8, ptr %1, i64 %4
  %.not40.i = icmp eq ptr %7, %2
  br i1 %.not40.i, label %sf_parse_params.exit, label %.lr.ph.i

.lr.ph.i:                                         ; preds = %6
  %8 = ptrtoint ptr %2 to i64
  br label %9

9:                                                ; preds = %40, %.lr.ph.i
  %.041.i = phi ptr [ %7, %.lr.ph.i ], [ %.2.i, %40 ]
  %10 = load i8, ptr %.041.i, align 1, !tbaa !16
  %11 = icmp eq i8 %10, 59
  br i1 %11, label %.preheader.i, label %sf_parse_params.exit

.preheader.i:                                     ; preds = %9, %13
  %.0.pn.i = phi ptr [ %.1.i, %13 ], [ %.041.i, %9 ]
  %.1.i = getelementptr inbounds nuw i8, ptr %.0.pn.i, i64 1
  %12 = icmp eq ptr %.1.i, %2
  br i1 %12, label %sf_parse_params.exit.thread, label %13

13:                                               ; preds = %.preheader.i
  %14 = load i8, ptr %.1.i, align 1, !tbaa !16
  %.not33.i = icmp eq i8 %14, 32
  br i1 %.not33.i, label %.preheader.i, label %15

15:                                               ; preds = %13
  %16 = ptrtoint ptr %.1.i to i64
  %17 = add i8 %14, -97
  %or.cond.i.i = icmp ult i8 %17, 26
  %.not.i.i = icmp eq i8 %14, 42
  %or.cond14.i.i = or i1 %.not.i.i, %or.cond.i.i
  br i1 %or.cond14.i.i, label %.lr.ph.preheader.i.i, label %sf_parse_params.exit.thread

.lr.ph.preheader.i.i:                             ; preds = %15
  %18 = sub i64 %8, %16
  %scevgep.i.i = getelementptr i8, ptr %.1.i, i64 %18
  br label %.lr.ph.i.i

.lr.ph.i.i:                                       ; preds = %23, %.lr.ph.preheader.i.i
  %.016.i.i = phi ptr [ %24, %23 ], [ %.1.i, %.lr.ph.preheader.i.i ]
  %19 = load i8, ptr %.016.i.i, align 1, !tbaa !16
  %20 = zext i8 %19 to i64
  %21 = getelementptr inbounds nuw [256 x i32], ptr @SF_KEY_CHARS, i64 0, i64 %20
  %22 = load i32, ptr %21, align 4, !tbaa !66
  %.not13.i.i = icmp eq i32 %22, 0
  br i1 %.not13.i.i, label %sf_parse_key.exit.i, label %23

23:                                               ; preds = %.lr.ph.i.i
  %24 = getelementptr inbounds nuw i8, ptr %.016.i.i, i64 1
  %.not12.i.i = icmp eq ptr %24, %2
  br i1 %.not12.i.i, label %sf_parse_key.exit.i, label %.lr.ph.i.i, !llvm.loop !67

sf_parse_key.exit.i:                              ; preds = %23, %.lr.ph.i.i
  %.0.lcssa.ph.i.i = phi ptr [ %.016.i.i, %.lr.ph.i.i ], [ %scevgep.i.i, %23 ]
  %.pre.i.i = ptrtoint ptr %.0.lcssa.ph.i.i to i64
  %25 = sub i64 %.pre.i.i, %16
  %26 = icmp slt i64 %25, 0
  br i1 %26, label %sf_parse_params.exit.thread, label %27

27:                                               ; preds = %sf_parse_key.exit.i
  %28 = getelementptr inbounds nuw i8, ptr %.1.i, i64 %25
  %29 = icmp eq ptr %.0.lcssa.ph.i.i, %2
  br i1 %29, label %40, label %30

30:                                               ; preds = %27
  %31 = load i8, ptr %28, align 1, !tbaa !16
  %.not34.i = icmp eq i8 %31, 61
  br i1 %.not34.i, label %32, label %40

32:                                               ; preds = %30
  %33 = getelementptr inbounds nuw i8, ptr %28, i64 1
  %34 = icmp eq ptr %33, %2
  br i1 %34, label %sf_parse_params.exit.thread, label %35

35:                                               ; preds = %32
  %36 = tail call fastcc i64 @sf_parse_bare_item(ptr noundef null, ptr noundef nonnull %33, ptr noundef %2)
  %37 = icmp slt i64 %36, 0
  br i1 %37, label %sf_parse_params.exit.thread, label %38

38:                                               ; preds = %35
  %39 = getelementptr inbounds nuw i8, ptr %33, i64 %36
  br label %40

40:                                               ; preds = %38, %30, %27
  %.2.i = phi ptr [ %28, %27 ], [ %28, %30 ], [ %39, %38 ]
  %.not.i = icmp eq ptr %.2.i, %2
  br i1 %.not.i, label %sf_parse_params.exit, label %9, !llvm.loop !68

sf_parse_params.exit:                             ; preds = %9, %40, %6
  %.0.lcssa.i = phi ptr [ %2, %6 ], [ %.041.i, %9 ], [ %2, %40 ]
  %41 = ptrtoint ptr %.0.lcssa.i to i64
  %42 = ptrtoint ptr %7 to i64
  %43 = sub i64 %41, %42
  %44 = icmp slt i64 %43, 0
  br i1 %44, label %sf_parse_params.exit.thread, label %45

45:                                               ; preds = %sf_parse_params.exit
  %46 = ptrtoint ptr %1 to i64
  %47 = sub i64 %41, %46
  br label %sf_parse_params.exit.thread

sf_parse_params.exit.thread:                      ; preds = %15, %35, %32, %sf_parse_key.exit.i, %.preheader.i, %sf_parse_params.exit, %3, %45
  %.0 = phi i64 [ %47, %45 ], [ -1, %3 ], [ -1, %sf_parse_params.exit ], [ -1, %.preheader.i ], [ -1, %sf_parse_key.exit.i ], [ -1, %32 ], [ -1, %35 ], [ -1, %15 ]
  ret i64 %.0
}